target datalayout = "e-m:e-p270:32:32-p271:32:32-p272:64:64-i64:64-i128:128-f80:128-n8:16:32:64-S128"
target triple = "x86_64-pc-linux-gnu"

%"class.std::vector.18" = type { %"struct.std::_Vector_base.19" }
%"struct.std::_Vector_base.19" = type { %"struct.std::_Vector_base<char, std::allocator<char>>::_Vector_impl" }
%"struct.std::_Vector_base<char, std::allocator<char>>::_Vector_impl" = type { %"struct.std::_Vector_base<char, std::allocator<char>>::_Vector_impl_data" }
%"struct.std::_Vector_base<char, std::allocator<char>>::_Vector_impl_data" = type { ptr, ptr, ptr }
%"class.testing::internal::MatchMatrix" = type { i64, i64, %"class.std::vector.18" }

; Function Attrs: mustprogress nounwind uwtable
define linkonce_odr dso_local noundef nonnull align 1 dereferenceable(1) ptr @_ZNSt6vectorIcSaIcEEixEm(ptr noundef nonnull align 8 dereferenceable(24) %0, i64 noundef %1) #7 comdat align 2 {
  %3 = alloca ptr, align 8
  %4 = alloca i64, align 8
  store ptr %0, ptr %3, align 8, !tbaa !105
  store i64 %1, ptr %4, align 8, !tbaa !31
  %5 = load ptr, ptr %3, align 8
  %6 = getelementptr inbounds nuw %"struct.std::_Vector_base.19", ptr %5, i32 0, i32 0
  %7 = getelementptr inbounds nuw %"struct.std::_Vector_base<char, std::allocator<char>>::_Vector_impl_data", ptr %6, i32 0, i32 0
  %8 = load ptr, ptr %7, align 8, !tbaa !107
  %9 = load i64, ptr %4, align 8, !tbaa !31
  %10 = getelementptr inbounds nuw i8, ptr %8, i64 %9
  ret ptr %10
}

; Function Attrs: mustprogress nounwind uwtable
define linkonce_odr dso_local noundef i64 @_ZNK7testing8internal11MatchMatrix10SpaceIndexEmm(ptr noundef nonnull align 8 dereferenceable(40) %0, i64 noundef %1, i64 noundef %2) #7 comdat align 2 {
  %4 = alloca ptr, align 8
  %5 = alloca i64, align 8
  %6 = alloca i64, align 8
  store ptr %0, ptr %4, align 8, !tbaa !83
  store i64 %1, ptr %5, align 8, !tbaa !31
  store i64 %2, ptr %6, align 8, !tbaa !31
  %7 = load ptr, ptr %4, align 8
  %8 = load i64, ptr %5, align 8, !tbaa !31
  %9 = getelementptr inbounds nuw %"class.testing::internal::MatchMatrix", ptr %7, i32 0, i32 1
  %10 = load i64, ptr %9, align 8, !tbaa !104
  %11 = mul i64 %8, %10
  %12 = load i64, ptr %6, align 8, !tbaa !31
  %13 = add i64 %11, %12
  ret i64 %13
}

; Function Attrs: mustprogress nounwind uwtable
define linkonce_odr dso_local noundef i64 @_ZNK7testing8internal11MatchMatrix7RhsSizeEv(ptr noundef nonnull align 8 dereferenceable(40) %0) #7 comdat align 2 {
  %2 = alloca ptr, align 8
  store ptr %0, ptr %2, align 8, !tbaa !83
  %3 = load ptr, ptr %2, align 8
  %4 = getelementptr inbounds nuw %"class.testing::internal::MatchMatrix", ptr %3, i32 0, i32 1
  %5 = load i64, ptr %4, align 8, !tbaa !104
  ret i64 %5
}

; Function Attrs: mustprogress nounwind uwtable
define linkonce_odr dso_local noundef i64 @_ZNK7testing8internal11MatchMatrix7LhsSizeEv(ptr noundef nonnull align 8 dereferenceable(40) %0) #7 comdat align 2 {
  %2 = alloca ptr, align 8
  store ptr %0, ptr %2, align 8, !tbaa !83
  %3 = load ptr, ptr %2, align 8
  %4 = getelementptr inbounds nuw %"class.testing::internal::MatchMatrix", ptr %3, i32 0, i32 0
  %5 = load i64, ptr %4, align 8, !tbaa !98
  ret i64 %5
}

; Function Attrs: mustprogress uwtable
define dso_local noundef zeroext i1 @_ZN7testing8internal11MatchMatrix9NextGraphEv(ptr noundef nonnull align 8 dereferenceable(40) %0) #4 align 2 {
  %2 = alloca i1, align 1
  %3 = alloca ptr, align 8
  %4 = alloca i64, align 8
  %5 = alloca i32, align 4
  %6 = alloca i64, align 8
  %7 = alloca ptr, align 8
  store ptr %0, ptr %3, align 8, !tbaa !83
  %8 = load ptr, ptr %3, align 8
  call void @llvm.lifetime.start.p0(i64 8, ptr %4) #3
  store i64 0, ptr %4, align 8, !tbaa !31
  br label %9

9:                                                ; preds = %42, %1
  %10 = load i64, ptr %4, align 8, !tbaa !31
  %11 = call noundef i64 @_ZNK7testing8internal11MatchMatrix7LhsSizeEv(ptr noundef nonnull align 8 dereferenceable(40) %8)
  %12 = icmp ult i64 %10, %11
  br i1 %12, label %14, label %13

13:                                               ; preds = %9
  store i32 2, ptr %5, align 4
  br label %45

14:                                               ; preds = %9
  call void @llvm.lifetime.start.p0(i64 8, ptr %6) #3
  store i64 0, ptr %6, align 8, !tbaa !31
  br label %15

15:                                               ; preds = %36, %14
  %16 = load i64, ptr %6, align 8, !tbaa !31
  %17 = call noundef i64 @_ZNK7testing8internal11MatchMatrix7RhsSizeEv(ptr noundef nonnull align 8 dereferenceable(40) %8)
  %18 = icmp ult i64 %16, %17
  br i1 %18, label %20, label %19

19:                                               ; preds = %15
  store i32 5, ptr %5, align 4
  br label %39

20:                                               ; preds = %15
  call void @llvm.lifetime.start.p0(i64 8, ptr %7) #3
  %21 = getelementptr inbounds nuw %"class.testing::internal::MatchMatrix", ptr %8, i32 0, i32 2
  %22 = load i64, ptr %4, align 8, !tbaa !31
  %23 = load i64, ptr %6, align 8, !tbaa !31
  %24 = call noundef i64 @_ZNK7testing8internal11MatchMatrix10SpaceIndexEmm(ptr noundef nonnull align 8 dereferenceable(40) %8, i64 noundef %22, i64 noundef %23)
  %25 = call noundef nonnull align 1 dereferenceable(1) ptr @_ZNSt6vectorIcSaIcEEixEm(ptr noundef nonnull align 8 dereferenceable(24) %21, i64 noundef %24) #3
  store ptr %25, ptr %7, align 8, !tbaa !13
  %26 = load ptr, ptr %7, align 8, !tbaa !13
  %27 = load i8, ptr %26, align 1, !tbaa !50
  %28 = icmp ne i8 %27, 0
  br i1 %28, label %31, label %29

29:                                               ; preds = %20
  %30 = load ptr, ptr %7, align 8, !tbaa !13
  store i8 1, ptr %30, align 1, !tbaa !50
  store i1 true, ptr %2, align 1
  store i32 1, ptr %5, align 4
  br label %33

31:                                               ; preds = %20
  %32 = load ptr, ptr %7, align 8, !tbaa !13
  store i8 0, ptr %32, align 1, !tbaa !50
  store i32 0, ptr %5, align 4
  br label %33

33:                                               ; preds = %31, %29
  call void @llvm.lifetime.end.p0(i64 8, ptr %7) #3
  %34 = load i32, ptr %5, align 4
  switch i32 %34, label %39 [
    i32 0, label %35
  ]

35:                                               ; preds = %33
  br label %36

36:                                               ; preds = %35
  %37 = load i64, ptr %6, align 8, !tbaa !31
  %38 = add i64 %37, 1
  store i64 %38, ptr %6, align 8, !tbaa !31
  br label %15, !llvm.loop !96

39:                                               ; preds = %33, %19
  call void @llvm.lifetime.end.p0(i64 8, ptr %6) #3
  %40 = load i32, ptr %5, align 4
  switch i32 %40, label %45 [
    i32 5, label %41
  ]

41:                                               ; preds = %39
  br label %42

42:                                               ; preds = %41
  %43 = load i64, ptr %4, align 8, !tbaa !31
  %44 = add i64 %43, 1
  store i64 %44, ptr %4, align 8, !tbaa !31
  br label %9, !llvm.loop !97

45:                                               ; preds = %39, %13
  call void @llvm.lifetime.end.p0(i64 8, ptr %4) #3
  %46 = load i32, ptr %5, align 4
  switch i32 %46, label %50 [
    i32 2, label %47
    i32 1, label %48
  ]

47:                                               ; preds = %45
  store i1 false, ptr %2, align 1
  br label %48

48:                                               ; preds = %47, %45
  %49 = load i1, ptr %2, align 1
  ret i1 %49

50:                                               ; preds = %45
  unreachable
}